
a.out:	file format mach-o arm64

Disassembly of section __TEXT,__text:

0000000100002fa0 <_new_poly_from_string>:
100002fa0: a9ba6ffc    	stp	x28, x27, [sp, #-96]!
100002fa4: a90167fa    	stp	x26, x25, [sp, #16]
100002fa8: a9025ff8    	stp	x24, x23, [sp, #32]
100002fac: a90357f6    	stp	x22, x21, [sp, #48]
100002fb0: a9044ff4    	stp	x20, x19, [sp, #64]
100002fb4: a9057bfd    	stp	x29, x30, [sp, #80]
100002fb8: 910143fd    	add	x29, sp, #80
100002fbc: aa0003f3    	mov	x19, x0
100002fc0: 52800200    	mov	w0, #16
100002fc4: 940000ec    	bl	0x100003374 <___check_malloc>
100002fc8: aa0003f4    	mov	x20, x0
100002fcc: 5280001a    	mov	w26, #0
100002fd0: 3940027b    	ldrb	w27, [x19]
100002fd4: 1280000d    	mov	w13, #-1
100002fd8: 52800036    	mov	w22, #1
100002fdc: 52800157    	mov	w23, #10
100002fe0: 12800018    	mov	w24, #-1
100002fe4: 1400000a    	b	0x10000300c <_new_poly_from_string+0x6c>
100002fe8: 11000798    	add	w24, w28, #1
100002fec: b9000298    	str	w24, [x20]
100002ff0: 93407f00    	sxtw	x0, w24
100002ff4: 52800081    	mov	w1, #4
100002ff8: 940000f6    	bl	0x1000033d0 <___check_calloc>
100002ffc: 1280000d    	mov	w13, #-1
100003000: f9000680    	str	x0, [x20, #8]
100003004: 1b197ea8    	mul	w8, w21, w25
100003008: b83cd808    	str	w8, [x0, w28, sxtw #2]
10000300c: 7100837f    	cmp	w27, #32
100003010: 54000060    	b.eq	0x10000301c <_new_poly_from_string+0x7c>
100003014: 3500007b    	cbnz	w27, 0x100003020 <_new_poly_from_string+0x80>
100003018: 1400004b    	b	0x100003144 <_new_poly_from_string+0x1a4>
10000301c: 1100075a    	add	w26, w26, #1
100003020: 52800008    	mov	w8, #0
100003024: aa1a03e9    	mov	x9, x26
100003028: 92403f49    	and	x9, x26, #0xffff
10000302c: 38696a69    	ldrb	w9, [x19, x9]
100003030: 11000b4a    	add	w10, w26, #2
100003034: 72003f5f    	tst	w26, #0xffff
100003038: 1a9f154b    	csinc	w11, w10, wzr, ne
10000303c: 7100b53f    	cmp	w9, #45
100003040: 1a8b134b    	csel	w11, w26, w11, ne
100003044: 1a8d12cc    	csel	w12, w22, w13, ne
100003048: 7100ad3f    	cmp	w9, #43
10000304c: 1a8b015a    	csel	w26, w10, w11, eq
100003050: 1a8c02d9    	csel	w25, w22, w12, eq
100003054: 92403f49    	and	x9, x26, #0xffff
100003058: 38696a7b    	ldrb	w27, [x19, x9]
10000305c: 3400013b    	cbz	w27, 0x100003080 <_new_poly_from_string+0xe0>
100003060: 7101e37f    	cmp	w27, #120
100003064: 540001c0    	b.eq	0x10000309c <_new_poly_from_string+0xfc>
100003068: 1b176d08    	madd	w8, w8, w23, w27
10000306c: 5100c108    	sub	w8, w8, #48
100003070: 1100075a    	add	w26, w26, #1
100003074: 92403f49    	and	x9, x26, #0xffff
100003078: 38696a7b    	ldrb	w27, [x19, x9]
10000307c: 35ffff3b    	cbnz	w27, 0x100003060 <_new_poly_from_string+0xc0>
100003080: 5280001c    	mov	w28, #0
100003084: 7100039f    	cmp	w28, #0
100003088: 7a40c900    	ccmp	w8, #0, #0, gt
10000308c: 1a9f1515    	csinc	w21, w8, wzr, ne
100003090: 3100071f    	cmn	w24, #1
100003094: 54000541    	b.ne	0x10000313c <_new_poly_from_string+0x19c>
100003098: 17ffffd4    	b	0x100002fe8 <_new_poly_from_string+0x48>
10000309c: 11000749    	add	w9, w26, #1
1000030a0: 92403d2a    	and	x10, x9, #0xffff
1000030a4: 386a6a7b    	ldrb	w27, [x19, x10]
1000030a8: 71017b7f    	cmp	w27, #94
1000030ac: 540001c1    	b.ne	0x1000030e4 <_new_poly_from_string+0x144>
1000030b0: 11000b5a    	add	w26, w26, #2
1000030b4: 92403f49    	and	x9, x26, #0xffff
1000030b8: 38696a69    	ldrb	w9, [x19, x9]
1000030bc: 7100813f    	cmp	w9, #32
1000030c0: 54000221    	b.ne	0x100003104 <_new_poly_from_string+0x164>
1000030c4: 5280001c    	mov	w28, #0
1000030c8: 5280041b    	mov	w27, #32
1000030cc: 7100039f    	cmp	w28, #0
1000030d0: 7a40c900    	ccmp	w8, #0, #0, gt
1000030d4: 1a9f1515    	csinc	w21, w8, wzr, ne
1000030d8: 3100071f    	cmn	w24, #1
1000030dc: 54000301    	b.ne	0x10000313c <_new_poly_from_string+0x19c>
1000030e0: 17ffffc2    	b	0x100002fe8 <_new_poly_from_string+0x48>
1000030e4: 5280003c    	mov	w28, #1
1000030e8: aa0903fa    	mov	x26, x9
1000030ec: 7100039f    	cmp	w28, #0
1000030f0: 7a40c900    	ccmp	w8, #0, #0, gt
1000030f4: 1a9f1515    	csinc	w21, w8, wzr, ne
1000030f8: 3100071f    	cmn	w24, #1
1000030fc: 54000201    	b.ne	0x10000313c <_new_poly_from_string+0x19c>
100003100: 17ffffba    	b	0x100002fe8 <_new_poly_from_string+0x48>
100003104: 5280001c    	mov	w28, #0
100003108: 1b172789    	madd	w9, w28, w23, w9
10000310c: 5100c13c    	sub	w28, w9, #48
100003110: 1100075a    	add	w26, w26, #1
100003114: 92403f49    	and	x9, x26, #0xffff
100003118: 38696a69    	ldrb	w9, [x19, x9]
10000311c: 7100813f    	cmp	w9, #32
100003120: 54ffff41    	b.ne	0x100003108 <_new_poly_from_string+0x168>
100003124: 5280041b    	mov	w27, #32
100003128: 7100039f    	cmp	w28, #0
10000312c: 7a40c900    	ccmp	w8, #0, #0, gt
100003130: 1a9f1515    	csinc	w21, w8, wzr, ne
100003134: 3100071f    	cmn	w24, #1
100003138: 54fff580    	b.eq	0x100002fe8 <_new_poly_from_string+0x48>
10000313c: f9400680    	ldr	x0, [x20, #8]
100003140: 17ffffb1    	b	0x100003004 <_new_poly_from_string+0x64>
100003144: aa1403e0    	mov	x0, x20
100003148: a9457bfd    	ldp	x29, x30, [sp, #80]
10000314c: a9444ff4    	ldp	x20, x19, [sp, #64]
100003150: a94357f6    	ldp	x22, x21, [sp, #48]
100003154: a9425ff8    	ldp	x24, x23, [sp, #32]
100003158: a94167fa    	ldp	x26, x25, [sp, #16]
10000315c: a8c66ffc    	ldp	x28, x27, [sp], #96
100003160: d65f03c0    	ret

0000000100003164 <_free_poly>:
100003164: a9be4ff4    	stp	x20, x19, [sp, #-32]!
100003168: a9017bfd    	stp	x29, x30, [sp, #16]
10000316c: 910043fd    	add	x29, sp, #16
100003170: aa0003f3    	mov	x19, x0
100003174: f9400400    	ldr	x0, [x0, #8]
100003178: 940000b7    	bl	0x100003454 <___check_free>
10000317c: aa1303e0    	mov	x0, x19
100003180: a9417bfd    	ldp	x29, x30, [sp, #16]
100003184: a8c24ff4    	ldp	x20, x19, [sp], #32
100003188: 140000b3    	b	0x100003454 <___check_free>

000000010000318c <_mul>:
10000318c: a9bd57f6    	stp	x22, x21, [sp, #-48]!
100003190: a9014ff4    	stp	x20, x19, [sp, #16]
100003194: a9027bfd    	stp	x29, x30, [sp, #32]
100003198: 910083fd    	add	x29, sp, #32
10000319c: aa0103f3    	mov	x19, x1
1000031a0: aa0003f4    	mov	x20, x0
1000031a4: 52800200    	mov	w0, #16
1000031a8: 94000073    	bl	0x100003374 <___check_malloc>
1000031ac: aa0003f5    	mov	x21, x0
1000031b0: b9400288    	ldr	w8, [x20]
1000031b4: b9400269    	ldr	w9, [x19]
1000031b8: 0b090108    	add	w8, w8, w9
1000031bc: 51000508    	sub	w8, w8, #1
1000031c0: b9000008    	str	w8, [x0]
1000031c4: 93407d00    	sxtw	x0, w8
1000031c8: 52800081    	mov	w1, #4
1000031cc: 94000081    	bl	0x1000033d0 <___check_calloc>
1000031d0: f90006a0    	str	x0, [x21, #8]
1000031d4: b9400289    	ldr	w9, [x20]
1000031d8: 34000349    	cbz	w9, 0x100003240 <_mul+0xb4>
1000031dc: b9400268    	ldr	w8, [x19]
1000031e0: 34000308    	cbz	w8, 0x100003240 <_mul+0xb4>
1000031e4: d2800008    	mov	x8, #0
1000031e8: 5280002a    	mov	w10, #1
1000031ec: 14000004    	b	0x1000031fc <_mul+0x70>
1000031f0: 91000508    	add	x8, x8, #1
1000031f4: eb09011f    	cmp	x8, x9
1000031f8: 54000242    	b.hs	0x100003240 <_mul+0xb4>
1000031fc: 34ffffaa    	cbz	w10, 0x1000031f0 <_mul+0x64>
100003200: d2800009    	mov	x9, #0
100003204: f940068b    	ldr	x11, [x20, #8]
100003208: f940066c    	ldr	x12, [x19, #8]
10000320c: b868796a    	ldr	w10, [x11, x8, lsl #2]
100003210: b869798d    	ldr	w13, [x12, x9, lsl #2]
100003214: 0b09010e    	add	w14, w8, w9
100003218: d37e7dce    	ubfiz	x14, x14, #2, #32
10000321c: b86e680f    	ldr	w15, [x0, x14]
100003220: 1b0a3daa    	madd	w10, w13, w10, w15
100003224: b82e680a    	str	w10, [x0, x14]
100003228: 91000529    	add	x9, x9, #1
10000322c: b940026a    	ldr	w10, [x19]
100003230: eb0a013f    	cmp	x9, x10
100003234: 54fffec3    	b.lo	0x10000320c <_mul+0x80>
100003238: b9400289    	ldr	w9, [x20]
10000323c: 17ffffed    	b	0x1000031f0 <_mul+0x64>
100003240: aa1503e0    	mov	x0, x21
100003244: a9427bfd    	ldp	x29, x30, [sp, #32]
100003248: a9414ff4    	ldp	x20, x19, [sp, #16]
10000324c: a8c357f6    	ldp	x22, x21, [sp], #48
100003250: d65f03c0    	ret

0000000100003254 <_print_poly>:
100003254: d101c3ff    	sub	sp, sp, #112
100003258: a9016ffc    	stp	x28, x27, [sp, #16]
10000325c: a90267fa    	stp	x26, x25, [sp, #32]
100003260: a9035ff8    	stp	x24, x23, [sp, #48]
100003264: a90457f6    	stp	x22, x21, [sp, #64]
100003268: a9054ff4    	stp	x20, x19, [sp, #80]
10000326c: a9067bfd    	stp	x29, x30, [sp, #96]
100003270: 910183fd    	add	x29, sp, #96
100003274: b9400018    	ldr	w24, [x0]
100003278: 7100071f    	cmp	w24, #1
10000327c: 540006ab    	b.lt	0x100003350 <_print_poly+0xfc>
100003280: aa0003f3    	mov	x19, x0
100003284: 90000016    	adrp	x22, 0x100003000 <_print_poly+0x30>
100003288: 912f52d6    	add	x22, x22, #3028
10000328c: 90000014    	adrp	x20, 0x100003000 <_print_poly+0x38>
100003290: 912f6a94    	add	x20, x20, #3034
100003294: 90000015    	adrp	x21, 0x100003000 <_print_poly+0x40>
100003298: 912f76b5    	add	x21, x21, #3037
10000329c: 90000017    	adrp	x23, 0x100003000 <_print_poly+0x48>
1000032a0: 912f5ef7    	add	x23, x23, #3031
1000032a4: 14000005    	b	0x1000032b8 <_print_poly+0x64>
1000032a8: 91000728    	add	x8, x25, #1
1000032ac: aa1903f8    	mov	x24, x25
1000032b0: f100051f    	cmp	x8, #1
1000032b4: 540004e9    	b.ls	0x100003350 <_print_poly+0xfc>
1000032b8: d1000719    	sub	x25, x24, #1
1000032bc: f9400668    	ldr	x8, [x19, #8]
1000032c0: b879591b    	ldr	w27, [x8, w25, uxtw #2]
1000032c4: 7100037f    	cmp	w27, #0
1000032c8: 5a9b577a    	cneg	w26, w27, mi
1000032cc: 34fffefb    	cbz	w27, 0x1000032a8 <_print_poly+0x54>
1000032d0: b9800268    	ldrsw	x8, [x19]
1000032d4: eb08031f    	cmp	x24, x8
1000032d8: 5400006a    	b.ge	0x1000032e4 <_print_poly+0x90>
1000032dc: 52800400    	mov	w0, #32
1000032e0: 94000237    	bl	0x100003bbc <_realloc+0x100003bbc>
1000032e4: 37f8013b    	tbnz	w27, #31, 0x100003308 <_print_poly+0xb4>
1000032e8: b9800268    	ldrsw	x8, [x19]
1000032ec: aa1703e0    	mov	x0, x23
1000032f0: eb08031f    	cmp	x24, x8
1000032f4: 540000cb    	b.lt	0x10000330c <_print_poly+0xb8>
1000032f8: 7100075f    	cmp	w26, #1
1000032fc: 7a419b04    	ccmp	w24, #1, #4, ls
100003300: 540000e0    	b.eq	0x10000331c <_print_poly+0xc8>
100003304: 1400000b    	b	0x100003330 <_print_poly+0xdc>
100003308: aa1603e0    	mov	x0, x22
10000330c: 94000229    	bl	0x100003bb0 <_realloc+0x100003bb0>
100003310: 7100075f    	cmp	w26, #1
100003314: 7a419b04    	ccmp	w24, #1, #4, ls
100003318: 540000c1    	b.ne	0x100003330 <_print_poly+0xdc>
10000331c: f90003fa    	str	x26, [sp]
100003320: aa1403e0    	mov	x0, x20
100003324: 94000223    	bl	0x100003bb0 <_realloc+0x100003bb0>
100003328: f1000b1f    	cmp	x24, #2
10000332c: 54000123    	b.lo	0x100003350 <_print_poly+0xfc>
100003330: 52800f00    	mov	w0, #120
100003334: 94000222    	bl	0x100003bbc <_realloc+0x100003bbc>
100003338: f1000f1f    	cmp	x24, #3
10000333c: 54fffb63    	b.lo	0x1000032a8 <_print_poly+0x54>
100003340: f90003f9    	str	x25, [sp]
100003344: aa1503e0    	mov	x0, x21
100003348: 9400021a    	bl	0x100003bb0 <_realloc+0x100003bb0>
10000334c: 17ffffd7    	b	0x1000032a8 <_print_poly+0x54>
100003350: 52800140    	mov	w0, #10
100003354: a9467bfd    	ldp	x29, x30, [sp, #96]
100003358: a9454ff4    	ldp	x20, x19, [sp, #80]
10000335c: a94457f6    	ldp	x22, x21, [sp, #64]
100003360: a9435ff8    	ldp	x24, x23, [sp, #48]
100003364: a94267fa    	ldp	x26, x25, [sp, #32]
100003368: a9416ffc    	ldp	x28, x27, [sp, #16]
10000336c: 9101c3ff    	add	sp, sp, #112
100003370: 14000213    	b	0x100003bbc <_realloc+0x100003bbc>

0000000100003374 <___check_malloc>:
100003374: a9be4ff4    	stp	x20, x19, [sp, #-32]!
100003378: a9017bfd    	stp	x29, x30, [sp, #16]
10000337c: 910043fd    	add	x29, sp, #16
100003380: b4000220    	cbz	x0, 0x1000033c4 <___check_malloc+0x50>
100003384: aa0003f3    	mov	x19, x0
100003388: b0000034    	adrp	x20, 0x100008000 <___check_malloc+0x28>
10000338c: 39402288    	ldrb	w8, [x20, #8]
100003390: 370000c8    	tbnz	w8, #0, 0x1000033a8 <___check_malloc+0x34>
100003394: 90000000    	adrp	x0, 0x100003000 <___check_malloc+0x20>
100003398: 91142000    	add	x0, x0, #1288
10000339c: 940001f3    	bl	0x100003b68 <_realloc+0x100003b68>
1000033a0: 52800028    	mov	w8, #1
1000033a4: 39002288    	strb	w8, [x20, #8]
1000033a8: aa1303e0    	mov	x0, x19
1000033ac: 940001fe    	bl	0x100003ba4 <_realloc+0x100003ba4>
1000033b0: b40000a0    	cbz	x0, 0x1000033c4 <___check_malloc+0x50>
1000033b4: b0000028    	adrp	x8, 0x100008000 <___check_malloc+0x54>
1000033b8: f9400909    	ldr	x9, [x8, #16]
1000033bc: 91000529    	add	x9, x9, #1
1000033c0: f9000909    	str	x9, [x8, #16]
1000033c4: a9417bfd    	ldp	x29, x30, [sp, #16]
1000033c8: a8c24ff4    	ldp	x20, x19, [sp], #32
1000033cc: d65f03c0    	ret

00000001000033d0 <___check_calloc>:
1000033d0: a9be4ff4    	stp	x20, x19, [sp, #-32]!
1000033d4: a9017bfd    	stp	x29, x30, [sp, #16]
1000033d8: 910043fd    	add	x29, sp, #16
1000033dc: 9b007c33    	mul	x19, x1, x0
1000033e0: b4000313    	cbz	x19, 0x100003440 <___check_calloc+0x70>
1000033e4: b0000034    	adrp	x20, 0x100008000 <___check_calloc+0x28>
1000033e8: 39402288    	ldrb	w8, [x20, #8]
1000033ec: 370000c8    	tbnz	w8, #0, 0x100003404 <___check_calloc+0x34>
1000033f0: 90000000    	adrp	x0, 0x100003000 <___check_calloc+0x20>
1000033f4: 91142000    	add	x0, x0, #1288
1000033f8: 940001dc    	bl	0x100003b68 <_realloc+0x100003b68>
1000033fc: 52800028    	mov	w8, #1
100003400: 39002288    	strb	w8, [x20, #8]
100003404: aa1303e0    	mov	x0, x19
100003408: 940001e7    	bl	0x100003ba4 <_realloc+0x100003ba4>
10000340c: aa0003f4    	mov	x20, x0
100003410: b4000100    	cbz	x0, 0x100003430 <___check_calloc+0x60>
100003414: b0000028    	adrp	x8, 0x100008000 <___check_calloc+0x58>
100003418: f9400909    	ldr	x9, [x8, #16]
10000341c: 91000529    	add	x9, x9, #1
100003420: f9000909    	str	x9, [x8, #16]
100003424: aa1403e0    	mov	x0, x20
100003428: aa1303e1    	mov	x1, x19
10000342c: 940001d2    	bl	0x100003b74 <_realloc+0x100003b74>
100003430: aa1403e0    	mov	x0, x20
100003434: a9417bfd    	ldp	x29, x30, [sp, #16]
100003438: a8c24ff4    	ldp	x20, x19, [sp], #32
10000343c: d65f03c0    	ret
100003440: d2800014    	mov	x20, #0
100003444: aa1403e0    	mov	x0, x20
100003448: a9417bfd    	ldp	x29, x30, [sp, #16]
10000344c: a8c24ff4    	ldp	x20, x19, [sp], #32
100003450: d65f03c0    	ret

0000000100003454 <___check_free>:
100003454: b40000c0    	cbz	x0, 0x10000346c <___check_free+0x18>
100003458: b0000028    	adrp	x8, 0x100008000 <___check_free+0x18>
10000345c: f9400d09    	ldr	x9, [x8, #24]
100003460: 91000529    	add	x9, x9, #1
100003464: f9000d09    	str	x9, [x8, #24]
100003468: 140001c9    	b	0x100003b8c <_realloc+0x100003b8c>
10000346c: d65f03c0    	ret

0000000100003470 <___check_realloc>:
100003470: a9be4ff4    	stp	x20, x19, [sp, #-32]!
100003474: a9017bfd    	stp	x29, x30, [sp, #16]
100003478: 910043fd    	add	x29, sp, #16
10000347c: b40000e1    	cbz	x1, 0x100003498 <___check_realloc+0x28>
100003480: aa0103f3    	mov	x19, x1
100003484: b40001e0    	cbz	x0, 0x1000034c0 <___check_realloc+0x50>
100003488: aa1303e1    	mov	x1, x19
10000348c: a9417bfd    	ldp	x29, x30, [sp, #16]
100003490: a8c24ff4    	ldp	x20, x19, [sp], #32
100003494: 140001cd    	b	0x100003bc8 <_realloc+0x100003bc8>
100003498: b40000e0    	cbz	x0, 0x1000034b4 <___check_realloc+0x44>
10000349c: b0000028    	adrp	x8, 0x100008000 <___check_realloc+0x40>
1000034a0: f9400d09    	ldr	x9, [x8, #24]
1000034a4: 91000529    	add	x9, x9, #1
1000034a8: f9000d09    	str	x9, [x8, #24]
1000034ac: 940001b8    	bl	0x100003b8c <_realloc+0x100003b8c>
1000034b0: d2800000    	mov	x0, #0
1000034b4: a9417bfd    	ldp	x29, x30, [sp, #16]
1000034b8: a8c24ff4    	ldp	x20, x19, [sp], #32
1000034bc: d65f03c0    	ret
1000034c0: b0000034    	adrp	x20, 0x100008000 <___check_realloc+0x64>
1000034c4: 39402288    	ldrb	w8, [x20, #8]
1000034c8: 370000c8    	tbnz	w8, #0, 0x1000034e0 <___check_realloc+0x70>
1000034cc: 90000000    	adrp	x0, 0x100003000 <___check_realloc+0x5c>
1000034d0: 91142000    	add	x0, x0, #1288
1000034d4: 940001a5    	bl	0x100003b68 <_realloc+0x100003b68>
1000034d8: 52800028    	mov	w8, #1
1000034dc: 39002288    	strb	w8, [x20, #8]
1000034e0: aa1303e0    	mov	x0, x19
1000034e4: 940001b0    	bl	0x100003ba4 <_realloc+0x100003ba4>
1000034e8: b4fffe60    	cbz	x0, 0x1000034b4 <___check_realloc+0x44>
1000034ec: b0000028    	adrp	x8, 0x100008000 <___check_realloc+0x90>
1000034f0: f9400909    	ldr	x9, [x8, #16]
1000034f4: 91000529    	add	x9, x9, #1
1000034f8: f9000909    	str	x9, [x8, #16]
1000034fc: a9417bfd    	ldp	x29, x30, [sp, #16]
100003500: a8c24ff4    	ldp	x20, x19, [sp], #32
100003504: d65f03c0    	ret

0000000100003508 <_check_memory_leaks>:
100003508: a9bf7bfd    	stp	x29, x30, [sp, #-16]!
10000350c: 910003fd    	mov	x29, sp
100003510: b0000028    	adrp	x8, 0x100008000 <_check_memory_leaks+0x1c>
100003514: 91004108    	add	x8, x8, #16
100003518: a9402109    	ldp	x9, x8, [x8]
10000351c: eb08013f    	cmp	x9, x8
100003520: 54000061    	b.ne	0x10000352c <_check_memory_leaks+0x24>
100003524: a8c17bfd    	ldp	x29, x30, [sp], #16
100003528: d65f03c0    	ret
10000352c: 94000160    	bl	0x100003aac <_check_memory_leaks.cold.1>

0000000100003530 <_OUTLINED_FUNCTION_0>:
100003530: 52800022    	mov	w2, #1
100003534: 14000199    	b	0x100003b98 <_realloc+0x100003b98>

0000000100003538 <_main>:
100003538: d10183ff    	sub	sp, sp, #96
10000353c: a90167fa    	stp	x26, x25, [sp, #16]
100003540: a9025ff8    	stp	x24, x23, [sp, #32]
100003544: a90357f6    	stp	x22, x21, [sp, #48]
100003548: a9044ff4    	stp	x20, x19, [sp, #64]
10000354c: a9057bfd    	stp	x29, x30, [sp, #80]
100003550: 910143fd    	add	x29, sp, #80
100003554: 90000014    	adrp	x20, 0x100003000 <_main+0x1c>
100003558: 9135aa94    	add	x20, x20, #3434
10000355c: 90000015    	adrp	x21, 0x100003000 <_main+0x24>
100003560: 91334ab5    	add	x21, x21, #3282
100003564: a90053f5    	stp	x21, x20, [sp]
100003568: 90000013    	adrp	x19, 0x100003000 <_main+0x30>
10000356c: 913c9273    	add	x19, x19, #3876
100003570: aa1303e0    	mov	x0, x19
100003574: 9400018f    	bl	0x100003bb0 <_realloc+0x100003bb0>
100003578: aa1503e0    	mov	x0, x21
10000357c: 97fffe89    	bl	0x100002fa0 <_new_poly_from_string>
100003580: aa0003f6    	mov	x22, x0
100003584: aa1403e0    	mov	x0, x20
100003588: 97fffe86    	bl	0x100002fa0 <_new_poly_from_string>
10000358c: aa0003f7    	mov	x23, x0
100003590: aa1603e0    	mov	x0, x22
100003594: 97ffff30    	bl	0x100003254 <_print_poly>
100003598: aa1703e0    	mov	x0, x23
10000359c: 97ffff2e    	bl	0x100003254 <_print_poly>
1000035a0: aa1603e0    	mov	x0, x22
1000035a4: aa1703e1    	mov	x1, x23
1000035a8: 97fffef9    	bl	0x10000318c <_mul>
1000035ac: aa0003f8    	mov	x24, x0
1000035b0: 97ffff29    	bl	0x100003254 <_print_poly>
1000035b4: aa1603e0    	mov	x0, x22
1000035b8: 97fffeeb    	bl	0x100003164 <_free_poly>
1000035bc: aa1703e0    	mov	x0, x23
1000035c0: 97fffee9    	bl	0x100003164 <_free_poly>
1000035c4: aa1803e0    	mov	x0, x24
1000035c8: 97fffee7    	bl	0x100003164 <_free_poly>
1000035cc: a90053f5    	stp	x21, x20, [sp]
1000035d0: 90000014    	adrp	x20, 0x100003000 <_main+0x98>
1000035d4: 913d2a94    	add	x20, x20, #3914
1000035d8: aa1403e0    	mov	x0, x20
1000035dc: 94000175    	bl	0x100003bb0 <_realloc+0x100003bb0>
1000035e0: 52800140    	mov	w0, #10
1000035e4: 94000176    	bl	0x100003bbc <_realloc+0x100003bbc>
1000035e8: 90000015    	adrp	x21, 0x100003000 <_main+0xb0>
1000035ec: 91384eb5    	add	x21, x21, #3603
1000035f0: 90000016    	adrp	x22, 0x100003000 <_main+0xb8>
1000035f4: 9135dad6    	add	x22, x22, #3446
1000035f8: a90057f6    	stp	x22, x21, [sp]
1000035fc: aa1303e0    	mov	x0, x19
100003600: 9400016c    	bl	0x100003bb0 <_realloc+0x100003bb0>
100003604: aa1603e0    	mov	x0, x22
100003608: 97fffe66    	bl	0x100002fa0 <_new_poly_from_string>
10000360c: aa0003f7    	mov	x23, x0
100003610: aa1503e0    	mov	x0, x21
100003614: 97fffe63    	bl	0x100002fa0 <_new_poly_from_string>
100003618: aa0003f8    	mov	x24, x0
10000361c: aa1703e0    	mov	x0, x23
100003620: 97ffff0d    	bl	0x100003254 <_print_poly>
100003624: aa1803e0    	mov	x0, x24
100003628: 97ffff0b    	bl	0x100003254 <_print_poly>
10000362c: aa1703e0    	mov	x0, x23
100003630: aa1803e1    	mov	x1, x24
100003634: 97fffed6    	bl	0x10000318c <_mul>
100003638: aa0003f9    	mov	x25, x0
10000363c: 97ffff06    	bl	0x100003254 <_print_poly>
100003640: aa1703e0    	mov	x0, x23
100003644: 97fffec8    	bl	0x100003164 <_free_poly>
100003648: aa1803e0    	mov	x0, x24
10000364c: 97fffec6    	bl	0x100003164 <_free_poly>
100003650: aa1903e0    	mov	x0, x25
100003654: 97fffec4    	bl	0x100003164 <_free_poly>
100003658: a90057f6    	stp	x22, x21, [sp]
10000365c: aa1403e0    	mov	x0, x20
100003660: 94000154    	bl	0x100003bb0 <_realloc+0x100003bb0>
100003664: 52800140    	mov	w0, #10
100003668: 94000155    	bl	0x100003bbc <_realloc+0x100003bbc>
10000366c: 90000015    	adrp	x21, 0x100003000 <_main+0x134>
100003670: 9138bab5    	add	x21, x21, #3630
100003674: 90000016    	adrp	x22, 0x100003000 <_main+0x13c>
100003678: 913886d6    	add	x22, x22, #3617
10000367c: a90057f6    	stp	x22, x21, [sp]
100003680: aa1303e0    	mov	x0, x19
100003684: 9400014b    	bl	0x100003bb0 <_realloc+0x100003bb0>
100003688: aa1603e0    	mov	x0, x22
10000368c: 97fffe45    	bl	0x100002fa0 <_new_poly_from_string>
100003690: aa0003f7    	mov	x23, x0
100003694: aa1503e0    	mov	x0, x21
100003698: 97fffe42    	bl	0x100002fa0 <_new_poly_from_string>
10000369c: aa0003f8    	mov	x24, x0
1000036a0: aa1703e0    	mov	x0, x23
1000036a4: 97fffeec    	bl	0x100003254 <_print_poly>
1000036a8: aa1803e0    	mov	x0, x24
1000036ac: 97fffeea    	bl	0x100003254 <_print_poly>
1000036b0: aa1703e0    	mov	x0, x23
1000036b4: aa1803e1    	mov	x1, x24
1000036b8: 97fffeb5    	bl	0x10000318c <_mul>
1000036bc: aa0003f9    	mov	x25, x0
1000036c0: 97fffee5    	bl	0x100003254 <_print_poly>
1000036c4: aa1703e0    	mov	x0, x23
1000036c8: 97fffea7    	bl	0x100003164 <_free_poly>
1000036cc: aa1803e0    	mov	x0, x24
1000036d0: 97fffea5    	bl	0x100003164 <_free_poly>
1000036d4: aa1903e0    	mov	x0, x25
1000036d8: 97fffea3    	bl	0x100003164 <_free_poly>
1000036dc: a90057f6    	stp	x22, x21, [sp]
1000036e0: aa1403e0    	mov	x0, x20
1000036e4: 94000133    	bl	0x100003bb0 <_realloc+0x100003bb0>
1000036e8: 52800140    	mov	w0, #10
1000036ec: 94000134    	bl	0x100003bbc <_realloc+0x100003bbc>
1000036f0: 90000015    	adrp	x21, 0x100003000 <_main+0x1b8>
1000036f4: 913912b5    	add	x21, x21, #3652
1000036f8: 90000016    	adrp	x22, 0x100003000 <_main+0x1c0>
1000036fc: 9138d6d6    	add	x22, x22, #3637
100003700: a90057f6    	stp	x22, x21, [sp]
100003704: aa1303e0    	mov	x0, x19
100003708: 9400012a    	bl	0x100003bb0 <_realloc+0x100003bb0>
10000370c: aa1603e0    	mov	x0, x22
100003710: 97fffe24    	bl	0x100002fa0 <_new_poly_from_string>
100003714: aa0003f7    	mov	x23, x0
100003718: aa1503e0    	mov	x0, x21
10000371c: 97fffe21    	bl	0x100002fa0 <_new_poly_from_string>
100003720: aa0003f8    	mov	x24, x0
100003724: aa1703e0    	mov	x0, x23
100003728: 97fffecb    	bl	0x100003254 <_print_poly>
10000372c: aa1803e0    	mov	x0, x24
100003730: 97fffec9    	bl	0x100003254 <_print_poly>
100003734: aa1703e0    	mov	x0, x23
100003738: aa1803e1    	mov	x1, x24
10000373c: 97fffe94    	bl	0x10000318c <_mul>
100003740: aa0003f9    	mov	x25, x0
100003744: 97fffec4    	bl	0x100003254 <_print_poly>
100003748: aa1703e0    	mov	x0, x23
10000374c: 97fffe86    	bl	0x100003164 <_free_poly>
100003750: aa1803e0    	mov	x0, x24
100003754: 97fffe84    	bl	0x100003164 <_free_poly>
100003758: aa1903e0    	mov	x0, x25
10000375c: 97fffe82    	bl	0x100003164 <_free_poly>
100003760: a90057f6    	stp	x22, x21, [sp]
100003764: aa1403e0    	mov	x0, x20
100003768: 94000112    	bl	0x100003bb0 <_realloc+0x100003bb0>
10000376c: 52800140    	mov	w0, #10
100003770: 94000113    	bl	0x100003bbc <_realloc+0x100003bbc>
100003774: 90000015    	adrp	x21, 0x100003000 <_main+0x23c>
100003778: 91399ab5    	add	x21, x21, #3686
10000377c: 90000016    	adrp	x22, 0x100003000 <_main+0x244>
100003780: 91394ad6    	add	x22, x22, #3666
100003784: a90057f6    	stp	x22, x21, [sp]
100003788: aa1303e0    	mov	x0, x19
10000378c: 94000109    	bl	0x100003bb0 <_realloc+0x100003bb0>
100003790: aa1603e0    	mov	x0, x22
100003794: 97fffe03    	bl	0x100002fa0 <_new_poly_from_string>
100003798: aa0003f7    	mov	x23, x0
10000379c: aa1503e0    	mov	x0, x21
1000037a0: 97fffe00    	bl	0x100002fa0 <_new_poly_from_string>
1000037a4: aa0003f8    	mov	x24, x0
1000037a8: aa1703e0    	mov	x0, x23
1000037ac: 97fffeaa    	bl	0x100003254 <_print_poly>
1000037b0: aa1803e0    	mov	x0, x24
1000037b4: 97fffea8    	bl	0x100003254 <_print_poly>
1000037b8: aa1703e0    	mov	x0, x23
1000037bc: aa1803e1    	mov	x1, x24
1000037c0: 97fffe73    	bl	0x10000318c <_mul>
1000037c4: aa0003f9    	mov	x25, x0
1000037c8: 97fffea3    	bl	0x100003254 <_print_poly>
1000037cc: aa1703e0    	mov	x0, x23
1000037d0: 97fffe65    	bl	0x100003164 <_free_poly>
1000037d4: aa1803e0    	mov	x0, x24
1000037d8: 97fffe63    	bl	0x100003164 <_free_poly>
1000037dc: aa1903e0    	mov	x0, x25
1000037e0: 97fffe61    	bl	0x100003164 <_free_poly>
1000037e4: a90057f6    	stp	x22, x21, [sp]
1000037e8: aa1403e0    	mov	x0, x20
1000037ec: 940000f1    	bl	0x100003bb0 <_realloc+0x100003bb0>
1000037f0: 52800140    	mov	w0, #10
1000037f4: 940000f2    	bl	0x100003bbc <_realloc+0x100003bbc>
1000037f8: 90000015    	adrp	x21, 0x100003000 <_main+0x2c0>
1000037fc: 913a3eb5    	add	x21, x21, #3727
100003800: 90000016    	adrp	x22, 0x100003000 <_main+0x2c8>
100003804: 9139d2d6    	add	x22, x22, #3700
100003808: a90057f6    	stp	x22, x21, [sp]
10000380c: aa1303e0    	mov	x0, x19
100003810: 940000e8    	bl	0x100003bb0 <_realloc+0x100003bb0>
100003814: aa1603e0    	mov	x0, x22
100003818: 97fffde2    	bl	0x100002fa0 <_new_poly_from_string>
10000381c: aa0003f7    	mov	x23, x0
100003820: aa1503e0    	mov	x0, x21
100003824: 97fffddf    	bl	0x100002fa0 <_new_poly_from_string>
100003828: aa0003f8    	mov	x24, x0
10000382c: aa1703e0    	mov	x0, x23
100003830: 97fffe89    	bl	0x100003254 <_print_poly>
100003834: aa1803e0    	mov	x0, x24
100003838: 97fffe87    	bl	0x100003254 <_print_poly>
10000383c: aa1703e0    	mov	x0, x23
100003840: aa1803e1    	mov	x1, x24
100003844: 97fffe52    	bl	0x10000318c <_mul>
100003848: aa0003f9    	mov	x25, x0
10000384c: 97fffe82    	bl	0x100003254 <_print_poly>
100003850: aa1703e0    	mov	x0, x23
100003854: 97fffe44    	bl	0x100003164 <_free_poly>
100003858: aa1803e0    	mov	x0, x24
10000385c: 97fffe42    	bl	0x100003164 <_free_poly>
100003860: aa1903e0    	mov	x0, x25
100003864: 97fffe40    	bl	0x100003164 <_free_poly>
100003868: a90057f6    	stp	x22, x21, [sp]
10000386c: aa1403e0    	mov	x0, x20
100003870: 940000d0    	bl	0x100003bb0 <_realloc+0x100003bb0>
100003874: 52800140    	mov	w0, #10
100003878: 940000d1    	bl	0x100003bbc <_realloc+0x100003bbc>
10000387c: 90000015    	adrp	x21, 0x100003000 <_main+0x344>
100003880: 913ac6b5    	add	x21, x21, #3761
100003884: 90000016    	adrp	x22, 0x100003000 <_main+0x34c>
100003888: 913a92d6    	add	x22, x22, #3748
10000388c: a90057f6    	stp	x22, x21, [sp]
100003890: aa1303e0    	mov	x0, x19
100003894: 940000c7    	bl	0x100003bb0 <_realloc+0x100003bb0>
100003898: aa1603e0    	mov	x0, x22
10000389c: 97fffdc1    	bl	0x100002fa0 <_new_poly_from_string>
1000038a0: aa0003f7    	mov	x23, x0
1000038a4: aa1503e0    	mov	x0, x21
1000038a8: 97fffdbe    	bl	0x100002fa0 <_new_poly_from_string>
1000038ac: aa0003f8    	mov	x24, x0
1000038b0: aa1703e0    	mov	x0, x23
1000038b4: 97fffe68    	bl	0x100003254 <_print_poly>
1000038b8: aa1803e0    	mov	x0, x24
1000038bc: 97fffe66    	bl	0x100003254 <_print_poly>
1000038c0: aa1703e0    	mov	x0, x23
1000038c4: aa1803e1    	mov	x1, x24
1000038c8: 97fffe31    	bl	0x10000318c <_mul>
1000038cc: aa0003f9    	mov	x25, x0
1000038d0: 97fffe61    	bl	0x100003254 <_print_poly>
1000038d4: aa1703e0    	mov	x0, x23
1000038d8: 97fffe23    	bl	0x100003164 <_free_poly>
1000038dc: aa1803e0    	mov	x0, x24
1000038e0: 97fffe21    	bl	0x100003164 <_free_poly>
1000038e4: aa1903e0    	mov	x0, x25
1000038e8: 97fffe1f    	bl	0x100003164 <_free_poly>
1000038ec: a90057f6    	stp	x22, x21, [sp]
1000038f0: aa1403e0    	mov	x0, x20
1000038f4: 940000af    	bl	0x100003bb0 <_realloc+0x100003bb0>
1000038f8: 52800140    	mov	w0, #10
1000038fc: 940000b0    	bl	0x100003bbc <_realloc+0x100003bbc>
100003900: 90000015    	adrp	x21, 0x100003000 <_main+0x3c8>
100003904: 913b66b5    	add	x21, x21, #3801
100003908: 90000016    	adrp	x22, 0x100003000 <_main+0x3d0>
10000390c: 913afad6    	add	x22, x22, #3774
100003910: a90057f6    	stp	x22, x21, [sp]
100003914: aa1303e0    	mov	x0, x19
100003918: 940000a6    	bl	0x100003bb0 <_realloc+0x100003bb0>
10000391c: aa1603e0    	mov	x0, x22
100003920: 97fffda0    	bl	0x100002fa0 <_new_poly_from_string>
100003924: aa0003f7    	mov	x23, x0
100003928: aa1503e0    	mov	x0, x21
10000392c: 97fffd9d    	bl	0x100002fa0 <_new_poly_from_string>
100003930: aa0003f8    	mov	x24, x0
100003934: aa1703e0    	mov	x0, x23
100003938: 97fffe47    	bl	0x100003254 <_print_poly>
10000393c: aa1803e0    	mov	x0, x24
100003940: 97fffe45    	bl	0x100003254 <_print_poly>
100003944: aa1703e0    	mov	x0, x23
100003948: aa1803e1    	mov	x1, x24
10000394c: 97fffe10    	bl	0x10000318c <_mul>
100003950: aa0003f9    	mov	x25, x0
100003954: 97fffe40    	bl	0x100003254 <_print_poly>
100003958: aa1703e0    	mov	x0, x23
10000395c: 97fffe02    	bl	0x100003164 <_free_poly>
100003960: aa1803e0    	mov	x0, x24
100003964: 97fffe00    	bl	0x100003164 <_free_poly>
100003968: aa1903e0    	mov	x0, x25
10000396c: 97fffdfe    	bl	0x100003164 <_free_poly>
100003970: a90057f6    	stp	x22, x21, [sp]
100003974: aa1403e0    	mov	x0, x20
100003978: 9400008e    	bl	0x100003bb0 <_realloc+0x100003bb0>
10000397c: 52800140    	mov	w0, #10
100003980: 9400008f    	bl	0x100003bbc <_realloc+0x100003bbc>
100003984: 90000015    	adrp	x21, 0x100003000 <_main+0x44c>
100003988: 913bf2b5    	add	x21, x21, #3836
10000398c: 90000016    	adrp	x22, 0x100003000 <_main+0x454>
100003990: 913bb6d6    	add	x22, x22, #3821
100003994: a90057f6    	stp	x22, x21, [sp]
100003998: aa1303e0    	mov	x0, x19
10000399c: 94000085    	bl	0x100003bb0 <_realloc+0x100003bb0>
1000039a0: aa1603e0    	mov	x0, x22
1000039a4: 97fffd7f    	bl	0x100002fa0 <_new_poly_from_string>
1000039a8: aa0003f7    	mov	x23, x0
1000039ac: aa1503e0    	mov	x0, x21
1000039b0: 97fffd7c    	bl	0x100002fa0 <_new_poly_from_string>
1000039b4: aa0003f8    	mov	x24, x0
1000039b8: aa1703e0    	mov	x0, x23
1000039bc: 97fffe26    	bl	0x100003254 <_print_poly>
1000039c0: aa1803e0    	mov	x0, x24
1000039c4: 97fffe24    	bl	0x100003254 <_print_poly>
1000039c8: aa1703e0    	mov	x0, x23
1000039cc: aa1803e1    	mov	x1, x24
1000039d0: 97fffdef    	bl	0x10000318c <_mul>
1000039d4: aa0003f9    	mov	x25, x0
1000039d8: 97fffe1f    	bl	0x100003254 <_print_poly>
1000039dc: aa1703e0    	mov	x0, x23
1000039e0: 97fffde1    	bl	0x100003164 <_free_poly>
1000039e4: aa1803e0    	mov	x0, x24
1000039e8: 97fffddf    	bl	0x100003164 <_free_poly>
1000039ec: aa1903e0    	mov	x0, x25
1000039f0: 97fffddd    	bl	0x100003164 <_free_poly>
1000039f4: a90057f6    	stp	x22, x21, [sp]
1000039f8: aa1403e0    	mov	x0, x20
1000039fc: 9400006d    	bl	0x100003bb0 <_realloc+0x100003bb0>
100003a00: 52800140    	mov	w0, #10
100003a04: 9400006e    	bl	0x100003bbc <_realloc+0x100003bbc>
100003a08: 90000015    	adrp	x21, 0x100003000 <_main+0x4d0>
100003a0c: 913c7ab5    	add	x21, x21, #3870
100003a10: 90000016    	adrp	x22, 0x100003000 <_main+0x4d8>
100003a14: 913c32d6    	add	x22, x22, #3852
100003a18: a90057f6    	stp	x22, x21, [sp]
100003a1c: aa1303e0    	mov	x0, x19
100003a20: 94000064    	bl	0x100003bb0 <_realloc+0x100003bb0>
100003a24: aa1603e0    	mov	x0, x22
100003a28: 97fffd5e    	bl	0x100002fa0 <_new_poly_from_string>
100003a2c: aa0003f3    	mov	x19, x0
100003a30: aa1503e0    	mov	x0, x21
100003a34: 97fffd5b    	bl	0x100002fa0 <_new_poly_from_string>
100003a38: aa0003f7    	mov	x23, x0
100003a3c: aa1303e0    	mov	x0, x19
100003a40: 97fffe05    	bl	0x100003254 <_print_poly>
100003a44: aa1703e0    	mov	x0, x23
100003a48: 97fffe03    	bl	0x100003254 <_print_poly>
100003a4c: aa1303e0    	mov	x0, x19
100003a50: aa1703e1    	mov	x1, x23
100003a54: 97fffdce    	bl	0x10000318c <_mul>
100003a58: aa0003f8    	mov	x24, x0
100003a5c: 97fffdfe    	bl	0x100003254 <_print_poly>
100003a60: aa1303e0    	mov	x0, x19
100003a64: 97fffdc0    	bl	0x100003164 <_free_poly>
100003a68: aa1703e0    	mov	x0, x23
100003a6c: 97fffdbe    	bl	0x100003164 <_free_poly>
100003a70: aa1803e0    	mov	x0, x24
100003a74: 97fffdbc    	bl	0x100003164 <_free_poly>
100003a78: a90057f6    	stp	x22, x21, [sp]
100003a7c: aa1403e0    	mov	x0, x20
100003a80: 9400004c    	bl	0x100003bb0 <_realloc+0x100003bb0>
100003a84: 52800140    	mov	w0, #10
100003a88: 9400004d    	bl	0x100003bbc <_realloc+0x100003bbc>
100003a8c: 52800000    	mov	w0, #0
100003a90: a9457bfd    	ldp	x29, x30, [sp, #80]
100003a94: a9444ff4    	ldp	x20, x19, [sp, #64]
100003a98: a94357f6    	ldp	x22, x21, [sp, #48]
100003a9c: a9425ff8    	ldp	x24, x23, [sp, #32]
100003aa0: a94167fa    	ldp	x26, x25, [sp, #16]
100003aa4: 910183ff    	add	sp, sp, #96
100003aa8: d65f03c0    	ret

0000000100003aac <_check_memory_leaks.cold.1>:
100003aac: d100c3ff    	sub	sp, sp, #48
100003ab0: a9014ff4    	stp	x20, x19, [sp, #16]
100003ab4: a9027bfd    	stp	x29, x30, [sp, #32]
100003ab8: 910083fd    	add	x29, sp, #32
100003abc: b0000013    	adrp	x19, 0x100004000 <_check_memory_leaks.cold.1+0x14>
100003ac0: f9400273    	ldr	x19, [x19]
100003ac4: f9400263    	ldr	x3, [x19]
100003ac8: 90000000    	adrp	x0, 0x100003000 <_check_memory_leaks.cold.1+0x1c>
100003acc: 912f8400    	add	x0, x0, #3041
100003ad0: 528005e1    	mov	w1, #47
100003ad4: 97fffe97    	bl	0x100003530 <_OUTLINED_FUNCTION_0>
100003ad8: b0000034    	adrp	x20, 0x100008000 <_check_memory_leaks.cold.1+0x40>
100003adc: 91004294    	add	x20, x20, #16
100003ae0: a9402289    	ldp	x9, x8, [x20]
100003ae4: f9400263    	ldr	x3, [x19]
100003ae8: eb09011f    	cmp	x8, x9
100003aec: 540000c9    	b.ls	0x100003b04 <_check_memory_leaks.cold.1+0x58>
100003af0: a90027e8    	stp	x8, x9, [sp]
100003af4: 90000001    	adrp	x1, 0x100003000 <_check_memory_leaks.cold.1+0x48>
100003af8: 91304421    	add	x1, x1, #3089
100003afc: aa0303e0    	mov	x0, x3
100003b00: 1400000b    	b	0x100003b2c <_check_memory_leaks.cold.1+0x80>
100003b04: 90000000    	adrp	x0, 0x100003000 <_check_memory_leaks.cold.1+0x58>
100003b08: 91315c00    	add	x0, x0, #3159
100003b0c: 528005c1    	mov	w1, #46
100003b10: 97fffe88    	bl	0x100003530 <_OUTLINED_FUNCTION_0>
100003b14: f9400260    	ldr	x0, [x19]
100003b18: a9402688    	ldp	x8, x9, [x20]
100003b1c: cb090108    	sub	x8, x8, x9
100003b20: f90003e8    	str	x8, [sp]
100003b24: 90000001    	adrp	x1, 0x100003000 <_check_memory_leaks.cold.1+0x78>
100003b28: 91321821    	add	x1, x1, #3206
100003b2c: 94000015    	bl	0x100003b80 <_realloc+0x100003b80>
100003b30: f9400263    	ldr	x3, [x19]
100003b34: 90000000    	adrp	x0, 0x100003000 <_check_memory_leaks.cold.1+0x88>
100003b38: 9132b400    	add	x0, x0, #3245
100003b3c: 52800481    	mov	w1, #36
100003b40: 97fffe7c    	bl	0x100003530 <_OUTLINED_FUNCTION_0>
100003b44: f9400263    	ldr	x3, [x19]
100003b48: 90000000    	adrp	x0, 0x100003000 <_check_memory_leaks.cold.1+0x9c>
100003b4c: 912f8400    	add	x0, x0, #3041
100003b50: 528005e1    	mov	w1, #47
100003b54: 97fffe77    	bl	0x100003530 <_OUTLINED_FUNCTION_0>
100003b58: 94000001    	bl	0x100003b5c <_realloc+0x100003b5c>

Disassembly of section __TEXT,__stubs:

0000000100003b5c <__stubs>:
100003b5c: b0000010    	adrp	x16, 0x100004000 <__stubs+0x4>
100003b60: f9400610    	ldr	x16, [x16, #8]
100003b64: d61f0200    	br	x16
100003b68: b0000010    	adrp	x16, 0x100004000 <__stubs+0x10>
100003b6c: f9400a10    	ldr	x16, [x16, #16]
100003b70: d61f0200    	br	x16
100003b74: b0000010    	adrp	x16, 0x100004000 <__stubs+0x1c>
100003b78: f9400e10    	ldr	x16, [x16, #24]
100003b7c: d61f0200    	br	x16
100003b80: b0000010    	adrp	x16, 0x100004000 <__stubs+0x28>
100003b84: f9401210    	ldr	x16, [x16, #32]
100003b88: d61f0200    	br	x16
100003b8c: b0000010    	adrp	x16, 0x100004000 <__stubs+0x34>
100003b90: f9401610    	ldr	x16, [x16, #40]
100003b94: d61f0200    	br	x16
100003b98: b0000010    	adrp	x16, 0x100004000 <__stubs+0x40>
100003b9c: f9401a10    	ldr	x16, [x16, #48]
100003ba0: d61f0200    	br	x16
100003ba4: b0000010    	adrp	x16, 0x100004000 <__stubs+0x4c>
100003ba8: f9401e10    	ldr	x16, [x16, #56]
100003bac: d61f0200    	br	x16
100003bb0: b0000010    	adrp	x16, 0x100004000 <__stubs+0x58>
100003bb4: f9402210    	ldr	x16, [x16, #64]
100003bb8: d61f0200    	br	x16
100003bbc: b0000010    	adrp	x16, 0x100004000 <__stubs+0x64>
100003bc0: f9402610    	ldr	x16, [x16, #72]
100003bc4: d61f0200    	br	x16
100003bc8: b0000010    	adrp	x16, 0x100004000 <__stubs+0x70>
100003bcc: f9402a10    	ldr	x16, [x16, #80]
100003bd0: d61f0200    	br	x16
